(dp0
Vengine
p1
Vpdflatex
p2
sVpackages
p3
c__builtin__
set
p4
((lp5
Vmathtools
p6
aVsubfigure
p7
aVverbatim
p8
aVbooktabs
p9
aVamsmath
p10
aVfullpage
p11
aVpdfpages
p12
aVmultirow
p13
aVcolor
p14
aVgraphicx
p15
aVnatbib
p16
atp17
Rp18
sVfiles_with_guttermarks
p19
g4
((lp20
S'Manual.tex'
p21
aV/Users/kevin/Documents/Github/SatPC32_FebruaryTry2/Manual/./Manual.tex
p22
atp23
Rp24
sVsynctex
p25
I01
s.